target datalayout = "e-m:e-p270:32:32-p271:32:32-p272:64:64-i64:64-i128:128-f80:128-n8:16:32:64-S128"
target triple = "x86_64-pc-linux-gnu"

%struct.ecx_key_st = type { ptr, ptr, i8, [57 x i8], ptr, i64, i32, %struct.CRYPTO_REF_COUNT }
%struct.CRYPTO_REF_COUNT = type { i32 }

@.str = private unnamed_addr constant [31 x i8] c"../openssl/crypto/ec/ecx_key.c\00", align 1

; Function Attrs: inlinehint nounwind uwtable
define internal void @CRYPTO_FREE_REF(ptr noundef %0) #3 {
  %2 = alloca ptr, align 8
  store ptr %0, ptr %2, align 8, !tbaa !21
  ret void
}

; Function Attrs: inlinehint nounwind uwtable
define internal i32 @CRYPTO_DOWN_REF(ptr noundef %0, ptr noundef %1) #3 {
  %3 = alloca ptr, align 8
  %4 = alloca ptr, align 8
  %5 = alloca i32, align 4
  %6 = alloca i32, align 4
  store ptr %0, ptr %3, align 8, !tbaa !21
  store ptr %1, ptr %4, align 8, !tbaa !24
  %7 = load ptr, ptr %3, align 8, !tbaa !21
  %8 = getelementptr inbounds nuw %struct.CRYPTO_REF_COUNT, ptr %7, i32 0, i32 0
  store i32 1, ptr %5, align 4, !tbaa !8
  %9 = load i32, ptr %5, align 4
  %10 = atomicrmw sub ptr %8, i32 %9 release, align 4
  store i32 %10, ptr %6, align 4
  %11 = load i32, ptr %6, align 4, !tbaa !8
  %12 = sub nsw i32 %11, 1
  %13 = load ptr, ptr %4, align 8, !tbaa !24
  store i32 %12, ptr %13, align 4, !tbaa !8
  %14 = load ptr, ptr %4, align 8, !tbaa !24
  %15 = load i32, ptr %14, align 4, !tbaa !8
  %16 = icmp eq i32 %15, 0
  br i1 %16, label %17, label %18

17:                                               ; preds = %2
  fence acquire
  br label %18

18:                                               ; preds = %17, %2
  ret i32 1
}

; Function Attrs: nounwind uwtable
define void @ossl_ecx_key_free(ptr noundef %0) #0 {
  %2 = alloca ptr, align 8
  %3 = alloca i32, align 4
  %4 = alloca i32, align 4
  store ptr %0, ptr %2, align 8, !tbaa !12
  call void @llvm.lifetime.start.p0(i64 4, ptr %3) #5
  %5 = load ptr, ptr %2, align 8, !tbaa !12
  %6 = icmp eq ptr %5, null
  br i1 %6, label %7, label %8

7:                                                ; preds = %1
  store i32 1, ptr %4, align 4
  br label %28

8:                                                ; preds = %1
  %9 = load ptr, ptr %2, align 8, !tbaa !12
  %10 = getelementptr inbounds nuw %struct.ecx_key_st, ptr %9, i32 0, i32 7
  %11 = call i32 @CRYPTO_DOWN_REF(ptr noundef %10, ptr noundef %3)
  %12 = load i32, ptr %3, align 4, !tbaa !8
  %13 = icmp sgt i32 %12, 0
  br i1 %13, label %14, label %15

14:                                               ; preds = %8
  store i32 1, ptr %4, align 4
  br label %28

15:                                               ; preds = %8
  %16 = load ptr, ptr %2, align 8, !tbaa !12
  %17 = getelementptr inbounds nuw %struct.ecx_key_st, ptr %16, i32 0, i32 1
  %18 = load ptr, ptr %17, align 8, !tbaa !20
  call void @CRYPTO_free(ptr noundef %18, ptr noundef @.str, i32 noundef 77)
  %19 = load ptr, ptr %2, align 8, !tbaa !12
  %20 = getelementptr inbounds nuw %struct.ecx_key_st, ptr %19, i32 0, i32 4
  %21 = load ptr, ptr %20, align 8, !tbaa !23
  %22 = load ptr, ptr %2, align 8, !tbaa !12
  %23 = getelementptr inbounds nuw %struct.ecx_key_st, ptr %22, i32 0, i32 5
  %24 = load i64, ptr %23, align 8, !tbaa !18
  call void @CRYPTO_secure_clear_free(ptr noundef %21, i64 noundef %24, ptr noundef @.str, i32 noundef 81)
  %25 = load ptr, ptr %2, align 8, !tbaa !12
  %26 = getelementptr inbounds nuw %struct.ecx_key_st, ptr %25, i32 0, i32 7
  call void @CRYPTO_FREE_REF(ptr noundef %26)
  %27 = load ptr, ptr %2, align 8, !tbaa !12
  call void @CRYPTO_free(ptr noundef %27, ptr noundef @.str, i32 noundef 83)
  store i32 0, ptr %4, align 4
  br label %28

28:                                               ; preds = %15, %14, %7
  call void @llvm.lifetime.end.p0(i64 4, ptr %3) #5
  %29 = load i32, ptr %4, align 4
  switch i32 %29, label %31 [
    i32 0, label %30
    i32 1, label %30
  ]

30:                                               ; preds = %28, %28
  ret void

31:                                               ; preds = %28
  unreachable
}