; Function Attrs: nounwind uwtable
define void @ossl_ecx_key_free(ptr noundef %0) local_unnamed_addr #0 {
  %2 = icmp eq ptr %0, null
  br i1 %2, label %15, label %3

3:                                                ; preds = %1
  %4 = getelementptr inbounds nuw i8, ptr %0, i64 100
  %5 = atomicrmw sub ptr %4, i32 1 release, align 4
  %6 = icmp eq i32 %5, 1
  br i1 %6, label %CRYPTO_DOWN_REF.exit.thread, label %CRYPTO_DOWN_REF.exit

CRYPTO_DOWN_REF.exit.thread:                      ; preds = %3
  fence acquire
  br label %8

CRYPTO_DOWN_REF.exit:                             ; preds = %3
  %7 = icmp sgt i32 %5, 1
  br i1 %7, label %15, label %8

8:                                                ; preds = %CRYPTO_DOWN_REF.exit.thread, %CRYPTO_DOWN_REF.exit
  %9 = getelementptr inbounds nuw i8, ptr %0, i64 8
  %10 = load ptr, ptr %9, align 8, !tbaa !16
  tail call void @CRYPTO_free(ptr noundef %10, ptr noundef nonnull @.str, i32 noundef 77) #4
  %11 = getelementptr inbounds nuw i8, ptr %0, i64 80
  %12 = load ptr, ptr %11, align 8, !tbaa !17
  %13 = getelementptr inbounds nuw i8, ptr %0, i64 88
  %14 = load i64, ptr %13, align 8, !tbaa !13
  tail call void @CRYPTO_secure_clear_free(ptr noundef %12, i64 noundef %14, ptr noundef nonnull @.str, i32 noundef 81) #4
  tail call void @CRYPTO_free(ptr noundef nonnull %0, ptr noundef nonnull @.str, i32 noundef 83) #4
  br label %15

15:                                               ; preds = %CRYPTO_DOWN_REF.exit, %1, %8
  ret void
}